
wb_basic.elf:     file format elf32-littleriscv


Disassembly of section .text:

10000000 <start>:
10000000:	00000093          	li	ra,0
10000004:	00000193          	li	gp,0
10000008:	00000213          	li	tp,0
1000000c:	00000293          	li	t0,0
10000010:	00000313          	li	t1,0
10000014:	00000393          	li	t2,0
10000018:	00000413          	li	s0,0
1000001c:	00000493          	li	s1,0
10000020:	00000513          	li	a0,0
10000024:	00000593          	li	a1,0
10000028:	00000613          	li	a2,0
1000002c:	00000693          	li	a3,0
10000030:	00000713          	li	a4,0
10000034:	00000793          	li	a5,0
10000038:	00000813          	li	a6,0
1000003c:	00000893          	li	a7,0
10000040:	00000913          	li	s2,0
10000044:	00000993          	li	s3,0
10000048:	00000a13          	li	s4,0
1000004c:	00000a93          	li	s5,0
10000050:	00000b13          	li	s6,0
10000054:	00000b93          	li	s7,0
10000058:	00000c13          	li	s8,0
1000005c:	00000c93          	li	s9,0
10000060:	00000d13          	li	s10,0
10000064:	00000d93          	li	s11,0
10000068:	00000e13          	li	t3,0
1000006c:	00000e93          	li	t4,0
10000070:	00000f13          	li	t5,0
10000074:	00000f93          	li	t6,0
10000078:	00001517          	auipc	a0,0x1
1000007c:	b0c50513          	addi	a0,a0,-1268 # 10000b84 <_etext>
10000080:	f1000597          	auipc	a1,0xf1000
10000084:	f8058593          	addi	a1,a1,-128 # 1000000 <_edata>
10000088:	f1000617          	auipc	a2,0xf1000
1000008c:	f7860613          	addi	a2,a2,-136 # 1000000 <_edata>
10000090:	00c5dc63          	bge	a1,a2,100000a8 <end_init_data>

10000094 <loop_init_data>:
10000094:	00052683          	lw	a3,0(a0)
10000098:	00d5a023          	sw	a3,0(a1)
1000009c:	00450513          	addi	a0,a0,4
100000a0:	00458593          	addi	a1,a1,4
100000a4:	fec5c8e3          	blt	a1,a2,10000094 <loop_init_data>

100000a8 <end_init_data>:
100000a8:	f1000517          	auipc	a0,0xf1000
100000ac:	f5850513          	addi	a0,a0,-168 # 1000000 <_edata>
100000b0:	f1000597          	auipc	a1,0xf1000
100000b4:	f5058593          	addi	a1,a1,-176 # 1000000 <_edata>
100000b8:	00b55863          	bge	a0,a1,100000c8 <end_init_bss>

100000bc <loop_init_bss>:
100000bc:	00052023          	sw	zero,0(a0)
100000c0:	00450513          	addi	a0,a0,4
100000c4:	feb54ce3          	blt	a0,a1,100000bc <loop_init_bss>

100000c8 <end_init_bss>:
100000c8:	061000ef          	jal	ra,10000928 <main>

100000cc <loop>:
100000cc:	0000006f          	j	100000cc <loop>

100000d0 <flashio_worker_begin>:
100000d0:	280002b7          	lui	t0,0x28000
100000d4:	12000313          	li	t1,288
100000d8:	00629023          	sh	t1,0(t0) # 28000000 <_etext+0x17fff47c>
100000dc:	000281a3          	sb	zero,3(t0)
100000e0:	02060863          	beqz	a2,10000110 <flashio_worker_L1>
100000e4:	00800f13          	li	t5,8
100000e8:	0ff67393          	andi	t2,a2,255

100000ec <flashio_worker_L4>:
100000ec:	0073de93          	srli	t4,t2,0x7
100000f0:	01d28023          	sb	t4,0(t0)
100000f4:	010eee93          	ori	t4,t4,16
100000f8:	01d28023          	sb	t4,0(t0)
100000fc:	00139393          	slli	t2,t2,0x1
10000100:	0ff3f393          	andi	t2,t2,255
10000104:	ffff0f13          	addi	t5,t5,-1
10000108:	fe0f12e3          	bnez	t5,100000ec <flashio_worker_L4>
1000010c:	00628023          	sb	t1,0(t0)

10000110 <flashio_worker_L1>:
10000110:	06058063          	beqz	a1,10000170 <flashio_worker_L3>
10000114:	02000f13          	li	t5,32
10000118:	00052383          	lw	t2,0(a0)

1000011c <flashio_worker_LY>:
1000011c:	00800f93          	li	t6,8

10000120 <flashio_worker_L2>:
10000120:	01f3de93          	srli	t4,t2,0x1f
10000124:	01d28023          	sb	t4,0(t0)
10000128:	010eee93          	ori	t4,t4,16
1000012c:	01d28023          	sb	t4,0(t0)
10000130:	0002ce83          	lbu	t4,0(t0)
10000134:	002efe93          	andi	t4,t4,2
10000138:	001ede93          	srli	t4,t4,0x1
1000013c:	00139393          	slli	t2,t2,0x1
10000140:	01d3e3b3          	or	t2,t2,t4
10000144:	ffff0f13          	addi	t5,t5,-1
10000148:	000f1863          	bnez	t5,10000158 <flashio_worker_LX>
1000014c:	00752023          	sw	t2,0(a0)
10000150:	00450513          	addi	a0,a0,4
10000154:	00052383          	lw	t2,0(a0)

10000158 <flashio_worker_LX>:
10000158:	ffff8f93          	addi	t6,t6,-1
1000015c:	fc0f92e3          	bnez	t6,10000120 <flashio_worker_L2>
10000160:	fff58593          	addi	a1,a1,-1
10000164:	fa059ce3          	bnez	a1,1000011c <flashio_worker_LY>
10000168:	000f0463          	beqz	t5,10000170 <flashio_worker_L3>
1000016c:	00752023          	sw	t2,0(a0)

10000170 <flashio_worker_L3>:
10000170:	08000313          	li	t1,128
10000174:	006281a3          	sb	t1,3(t0)
10000178:	00008067          	ret

1000017c <putchar>:
1000017c:	fe010113          	addi	sp,sp,-32
10000180:	00112e23          	sw	ra,28(sp)
10000184:	00812c23          	sw	s0,24(sp)
10000188:	02010413          	addi	s0,sp,32
1000018c:	fea42623          	sw	a0,-20(s0)
10000190:	fec42703          	lw	a4,-20(s0)
10000194:	00a00793          	li	a5,10
10000198:	00f71663          	bne	a4,a5,100001a4 <putchar+0x28>
1000019c:	00d00513          	li	a0,13
100001a0:	fddff0ef          	jal	ra,1000017c <putchar>
100001a4:	200007b7          	lui	a5,0x20000
100001a8:	00478793          	addi	a5,a5,4 # 20000004 <_etext+0xffff480>
100001ac:	fec42703          	lw	a4,-20(s0)
100001b0:	00e7a023          	sw	a4,0(a5)
100001b4:	00000013          	nop
100001b8:	01c12083          	lw	ra,28(sp)
100001bc:	01812403          	lw	s0,24(sp)
100001c0:	02010113          	addi	sp,sp,32
100001c4:	00008067          	ret

100001c8 <print>:
100001c8:	fe010113          	addi	sp,sp,-32
100001cc:	00112e23          	sw	ra,28(sp)
100001d0:	00812c23          	sw	s0,24(sp)
100001d4:	02010413          	addi	s0,sp,32
100001d8:	fea42623          	sw	a0,-20(s0)
100001dc:	01c0006f          	j	100001f8 <print+0x30>
100001e0:	fec42783          	lw	a5,-20(s0)
100001e4:	00178713          	addi	a4,a5,1
100001e8:	fee42623          	sw	a4,-20(s0)
100001ec:	0007c783          	lbu	a5,0(a5)
100001f0:	00078513          	mv	a0,a5
100001f4:	f89ff0ef          	jal	ra,1000017c <putchar>
100001f8:	fec42783          	lw	a5,-20(s0)
100001fc:	0007c783          	lbu	a5,0(a5)
10000200:	fe0790e3          	bnez	a5,100001e0 <print+0x18>
10000204:	00000013          	nop
10000208:	01c12083          	lw	ra,28(sp)
1000020c:	01812403          	lw	s0,24(sp)
10000210:	02010113          	addi	sp,sp,32
10000214:	00008067          	ret

10000218 <print_hex>:
10000218:	fd010113          	addi	sp,sp,-48
1000021c:	02112623          	sw	ra,44(sp)
10000220:	02812423          	sw	s0,40(sp)
10000224:	03010413          	addi	s0,sp,48
10000228:	fca42e23          	sw	a0,-36(s0)
1000022c:	fcb42c23          	sw	a1,-40(s0)
10000230:	fd842783          	lw	a5,-40(s0)
10000234:	fff78793          	addi	a5,a5,-1
10000238:	fef42623          	sw	a5,-20(s0)
1000023c:	0440006f          	j	10000280 <print_hex+0x68>
10000240:	fec42783          	lw	a5,-20(s0)
10000244:	00279793          	slli	a5,a5,0x2
10000248:	fdc42703          	lw	a4,-36(s0)
1000024c:	00f757b3          	srl	a5,a4,a5
10000250:	00f7f713          	andi	a4,a5,15
10000254:	100017b7          	lui	a5,0x10001
10000258:	ab878793          	addi	a5,a5,-1352 # 10000ab8 <main+0x190>
1000025c:	00f707b3          	add	a5,a4,a5
10000260:	0007c783          	lbu	a5,0(a5)
10000264:	fef405a3          	sb	a5,-21(s0)
10000268:	feb44783          	lbu	a5,-21(s0)
1000026c:	00078513          	mv	a0,a5
10000270:	f0dff0ef          	jal	ra,1000017c <putchar>
10000274:	fec42783          	lw	a5,-20(s0)
10000278:	fff78793          	addi	a5,a5,-1
1000027c:	fef42623          	sw	a5,-20(s0)
10000280:	fec42783          	lw	a5,-20(s0)
10000284:	fa07dee3          	bgez	a5,10000240 <print_hex+0x28>
10000288:	00000013          	nop
1000028c:	02c12083          	lw	ra,44(sp)
10000290:	02812403          	lw	s0,40(sp)
10000294:	03010113          	addi	sp,sp,48
10000298:	00008067          	ret

1000029c <print_dec>:
1000029c:	fe010113          	addi	sp,sp,-32
100002a0:	00112e23          	sw	ra,28(sp)
100002a4:	00812c23          	sw	s0,24(sp)
100002a8:	02010413          	addi	s0,sp,32
100002ac:	fea42623          	sw	a0,-20(s0)
100002b0:	fec42703          	lw	a4,-20(s0)
100002b4:	7cf00793          	li	a5,1999
100002b8:	00e7fa63          	bgeu	a5,a4,100002cc <print_dec+0x30>
100002bc:	100017b7          	lui	a5,0x10001
100002c0:	acc78513          	addi	a0,a5,-1332 # 10000acc <main+0x1a4>
100002c4:	f05ff0ef          	jal	ra,100001c8 <print>
100002c8:	4100006f          	j	100006d8 <print_dec+0x43c>
100002cc:	fec42703          	lw	a4,-20(s0)
100002d0:	3e700793          	li	a5,999
100002d4:	00e7fe63          	bgeu	a5,a4,100002f0 <print_dec+0x54>
100002d8:	03100513          	li	a0,49
100002dc:	ea1ff0ef          	jal	ra,1000017c <putchar>
100002e0:	fec42783          	lw	a5,-20(s0)
100002e4:	c1878793          	addi	a5,a5,-1000
100002e8:	fef42623          	sw	a5,-20(s0)
100002ec:	00c0006f          	j	100002f8 <print_dec+0x5c>
100002f0:	02000513          	li	a0,32
100002f4:	e89ff0ef          	jal	ra,1000017c <putchar>
100002f8:	fec42703          	lw	a4,-20(s0)
100002fc:	38300793          	li	a5,899
10000300:	00e7fe63          	bgeu	a5,a4,1000031c <print_dec+0x80>
10000304:	03900513          	li	a0,57
10000308:	e75ff0ef          	jal	ra,1000017c <putchar>
1000030c:	fec42783          	lw	a5,-20(s0)
10000310:	c7c78793          	addi	a5,a5,-900
10000314:	fef42623          	sw	a5,-20(s0)
10000318:	12c0006f          	j	10000444 <print_dec+0x1a8>
1000031c:	fec42703          	lw	a4,-20(s0)
10000320:	31f00793          	li	a5,799
10000324:	00e7fe63          	bgeu	a5,a4,10000340 <print_dec+0xa4>
10000328:	03800513          	li	a0,56
1000032c:	e51ff0ef          	jal	ra,1000017c <putchar>
10000330:	fec42783          	lw	a5,-20(s0)
10000334:	ce078793          	addi	a5,a5,-800
10000338:	fef42623          	sw	a5,-20(s0)
1000033c:	1080006f          	j	10000444 <print_dec+0x1a8>
10000340:	fec42703          	lw	a4,-20(s0)
10000344:	2bb00793          	li	a5,699
10000348:	00e7fe63          	bgeu	a5,a4,10000364 <print_dec+0xc8>
1000034c:	03700513          	li	a0,55
10000350:	e2dff0ef          	jal	ra,1000017c <putchar>
10000354:	fec42783          	lw	a5,-20(s0)
10000358:	d4478793          	addi	a5,a5,-700
1000035c:	fef42623          	sw	a5,-20(s0)
10000360:	0e40006f          	j	10000444 <print_dec+0x1a8>
10000364:	fec42703          	lw	a4,-20(s0)
10000368:	25700793          	li	a5,599
1000036c:	00e7fe63          	bgeu	a5,a4,10000388 <print_dec+0xec>
10000370:	03600513          	li	a0,54
10000374:	e09ff0ef          	jal	ra,1000017c <putchar>
10000378:	fec42783          	lw	a5,-20(s0)
1000037c:	da878793          	addi	a5,a5,-600
10000380:	fef42623          	sw	a5,-20(s0)
10000384:	0c00006f          	j	10000444 <print_dec+0x1a8>
10000388:	fec42703          	lw	a4,-20(s0)
1000038c:	1f300793          	li	a5,499
10000390:	00e7fe63          	bgeu	a5,a4,100003ac <print_dec+0x110>
10000394:	03500513          	li	a0,53
10000398:	de5ff0ef          	jal	ra,1000017c <putchar>
1000039c:	fec42783          	lw	a5,-20(s0)
100003a0:	e0c78793          	addi	a5,a5,-500
100003a4:	fef42623          	sw	a5,-20(s0)
100003a8:	09c0006f          	j	10000444 <print_dec+0x1a8>
100003ac:	fec42703          	lw	a4,-20(s0)
100003b0:	18f00793          	li	a5,399
100003b4:	00e7fe63          	bgeu	a5,a4,100003d0 <print_dec+0x134>
100003b8:	03400513          	li	a0,52
100003bc:	dc1ff0ef          	jal	ra,1000017c <putchar>
100003c0:	fec42783          	lw	a5,-20(s0)
100003c4:	e7078793          	addi	a5,a5,-400
100003c8:	fef42623          	sw	a5,-20(s0)
100003cc:	0780006f          	j	10000444 <print_dec+0x1a8>
100003d0:	fec42703          	lw	a4,-20(s0)
100003d4:	12b00793          	li	a5,299
100003d8:	00e7fe63          	bgeu	a5,a4,100003f4 <print_dec+0x158>
100003dc:	03300513          	li	a0,51
100003e0:	d9dff0ef          	jal	ra,1000017c <putchar>
100003e4:	fec42783          	lw	a5,-20(s0)
100003e8:	ed478793          	addi	a5,a5,-300
100003ec:	fef42623          	sw	a5,-20(s0)
100003f0:	0540006f          	j	10000444 <print_dec+0x1a8>
100003f4:	fec42703          	lw	a4,-20(s0)
100003f8:	0c700793          	li	a5,199
100003fc:	00e7fe63          	bgeu	a5,a4,10000418 <print_dec+0x17c>
10000400:	03200513          	li	a0,50
10000404:	d79ff0ef          	jal	ra,1000017c <putchar>
10000408:	fec42783          	lw	a5,-20(s0)
1000040c:	f3878793          	addi	a5,a5,-200
10000410:	fef42623          	sw	a5,-20(s0)
10000414:	0300006f          	j	10000444 <print_dec+0x1a8>
10000418:	fec42703          	lw	a4,-20(s0)
1000041c:	06300793          	li	a5,99
10000420:	00e7fe63          	bgeu	a5,a4,1000043c <print_dec+0x1a0>
10000424:	03100513          	li	a0,49
10000428:	d55ff0ef          	jal	ra,1000017c <putchar>
1000042c:	fec42783          	lw	a5,-20(s0)
10000430:	f9c78793          	addi	a5,a5,-100
10000434:	fef42623          	sw	a5,-20(s0)
10000438:	00c0006f          	j	10000444 <print_dec+0x1a8>
1000043c:	03000513          	li	a0,48
10000440:	d3dff0ef          	jal	ra,1000017c <putchar>
10000444:	fec42703          	lw	a4,-20(s0)
10000448:	05900793          	li	a5,89
1000044c:	00e7fe63          	bgeu	a5,a4,10000468 <print_dec+0x1cc>
10000450:	03900513          	li	a0,57
10000454:	d29ff0ef          	jal	ra,1000017c <putchar>
10000458:	fec42783          	lw	a5,-20(s0)
1000045c:	fa678793          	addi	a5,a5,-90
10000460:	fef42623          	sw	a5,-20(s0)
10000464:	12c0006f          	j	10000590 <print_dec+0x2f4>
10000468:	fec42703          	lw	a4,-20(s0)
1000046c:	04f00793          	li	a5,79
10000470:	00e7fe63          	bgeu	a5,a4,1000048c <print_dec+0x1f0>
10000474:	03800513          	li	a0,56
10000478:	d05ff0ef          	jal	ra,1000017c <putchar>
1000047c:	fec42783          	lw	a5,-20(s0)
10000480:	fb078793          	addi	a5,a5,-80
10000484:	fef42623          	sw	a5,-20(s0)
10000488:	1080006f          	j	10000590 <print_dec+0x2f4>
1000048c:	fec42703          	lw	a4,-20(s0)
10000490:	04500793          	li	a5,69
10000494:	00e7fe63          	bgeu	a5,a4,100004b0 <print_dec+0x214>
10000498:	03700513          	li	a0,55
1000049c:	ce1ff0ef          	jal	ra,1000017c <putchar>
100004a0:	fec42783          	lw	a5,-20(s0)
100004a4:	fba78793          	addi	a5,a5,-70
100004a8:	fef42623          	sw	a5,-20(s0)
100004ac:	0e40006f          	j	10000590 <print_dec+0x2f4>
100004b0:	fec42703          	lw	a4,-20(s0)
100004b4:	03b00793          	li	a5,59
100004b8:	00e7fe63          	bgeu	a5,a4,100004d4 <print_dec+0x238>
100004bc:	03600513          	li	a0,54
100004c0:	cbdff0ef          	jal	ra,1000017c <putchar>
100004c4:	fec42783          	lw	a5,-20(s0)
100004c8:	fc478793          	addi	a5,a5,-60
100004cc:	fef42623          	sw	a5,-20(s0)
100004d0:	0c00006f          	j	10000590 <print_dec+0x2f4>
100004d4:	fec42703          	lw	a4,-20(s0)
100004d8:	03100793          	li	a5,49
100004dc:	00e7fe63          	bgeu	a5,a4,100004f8 <print_dec+0x25c>
100004e0:	03500513          	li	a0,53
100004e4:	c99ff0ef          	jal	ra,1000017c <putchar>
100004e8:	fec42783          	lw	a5,-20(s0)
100004ec:	fce78793          	addi	a5,a5,-50
100004f0:	fef42623          	sw	a5,-20(s0)
100004f4:	09c0006f          	j	10000590 <print_dec+0x2f4>
100004f8:	fec42703          	lw	a4,-20(s0)
100004fc:	02700793          	li	a5,39
10000500:	00e7fe63          	bgeu	a5,a4,1000051c <print_dec+0x280>
10000504:	03400513          	li	a0,52
10000508:	c75ff0ef          	jal	ra,1000017c <putchar>
1000050c:	fec42783          	lw	a5,-20(s0)
10000510:	fd878793          	addi	a5,a5,-40
10000514:	fef42623          	sw	a5,-20(s0)
10000518:	0780006f          	j	10000590 <print_dec+0x2f4>
1000051c:	fec42703          	lw	a4,-20(s0)
10000520:	01d00793          	li	a5,29
10000524:	00e7fe63          	bgeu	a5,a4,10000540 <print_dec+0x2a4>
10000528:	03300513          	li	a0,51
1000052c:	c51ff0ef          	jal	ra,1000017c <putchar>
10000530:	fec42783          	lw	a5,-20(s0)
10000534:	fe278793          	addi	a5,a5,-30
10000538:	fef42623          	sw	a5,-20(s0)
1000053c:	0540006f          	j	10000590 <print_dec+0x2f4>
10000540:	fec42703          	lw	a4,-20(s0)
10000544:	01300793          	li	a5,19
10000548:	00e7fe63          	bgeu	a5,a4,10000564 <print_dec+0x2c8>
1000054c:	03200513          	li	a0,50
10000550:	c2dff0ef          	jal	ra,1000017c <putchar>
10000554:	fec42783          	lw	a5,-20(s0)
10000558:	fec78793          	addi	a5,a5,-20
1000055c:	fef42623          	sw	a5,-20(s0)
10000560:	0300006f          	j	10000590 <print_dec+0x2f4>
10000564:	fec42703          	lw	a4,-20(s0)
10000568:	00900793          	li	a5,9
1000056c:	00e7fe63          	bgeu	a5,a4,10000588 <print_dec+0x2ec>
10000570:	03100513          	li	a0,49
10000574:	c09ff0ef          	jal	ra,1000017c <putchar>
10000578:	fec42783          	lw	a5,-20(s0)
1000057c:	ff678793          	addi	a5,a5,-10
10000580:	fef42623          	sw	a5,-20(s0)
10000584:	00c0006f          	j	10000590 <print_dec+0x2f4>
10000588:	03000513          	li	a0,48
1000058c:	bf1ff0ef          	jal	ra,1000017c <putchar>
10000590:	fec42703          	lw	a4,-20(s0)
10000594:	00800793          	li	a5,8
10000598:	00e7fe63          	bgeu	a5,a4,100005b4 <print_dec+0x318>
1000059c:	03900513          	li	a0,57
100005a0:	bddff0ef          	jal	ra,1000017c <putchar>
100005a4:	fec42783          	lw	a5,-20(s0)
100005a8:	ff778793          	addi	a5,a5,-9
100005ac:	fef42623          	sw	a5,-20(s0)
100005b0:	1280006f          	j	100006d8 <print_dec+0x43c>
100005b4:	fec42703          	lw	a4,-20(s0)
100005b8:	00700793          	li	a5,7
100005bc:	00e7fe63          	bgeu	a5,a4,100005d8 <print_dec+0x33c>
100005c0:	03800513          	li	a0,56
100005c4:	bb9ff0ef          	jal	ra,1000017c <putchar>
100005c8:	fec42783          	lw	a5,-20(s0)
100005cc:	ff878793          	addi	a5,a5,-8
100005d0:	fef42623          	sw	a5,-20(s0)
100005d4:	1040006f          	j	100006d8 <print_dec+0x43c>
100005d8:	fec42703          	lw	a4,-20(s0)
100005dc:	00600793          	li	a5,6
100005e0:	00e7fe63          	bgeu	a5,a4,100005fc <print_dec+0x360>
100005e4:	03700513          	li	a0,55
100005e8:	b95ff0ef          	jal	ra,1000017c <putchar>
100005ec:	fec42783          	lw	a5,-20(s0)
100005f0:	ff978793          	addi	a5,a5,-7
100005f4:	fef42623          	sw	a5,-20(s0)
100005f8:	0e00006f          	j	100006d8 <print_dec+0x43c>
100005fc:	fec42703          	lw	a4,-20(s0)
10000600:	00500793          	li	a5,5
10000604:	00e7fe63          	bgeu	a5,a4,10000620 <print_dec+0x384>
10000608:	03600513          	li	a0,54
1000060c:	b71ff0ef          	jal	ra,1000017c <putchar>
10000610:	fec42783          	lw	a5,-20(s0)
10000614:	ffa78793          	addi	a5,a5,-6
10000618:	fef42623          	sw	a5,-20(s0)
1000061c:	0bc0006f          	j	100006d8 <print_dec+0x43c>
10000620:	fec42703          	lw	a4,-20(s0)
10000624:	00400793          	li	a5,4
10000628:	00e7fe63          	bgeu	a5,a4,10000644 <print_dec+0x3a8>
1000062c:	03500513          	li	a0,53
10000630:	b4dff0ef          	jal	ra,1000017c <putchar>
10000634:	fec42783          	lw	a5,-20(s0)
10000638:	ffb78793          	addi	a5,a5,-5
1000063c:	fef42623          	sw	a5,-20(s0)
10000640:	0980006f          	j	100006d8 <print_dec+0x43c>
10000644:	fec42703          	lw	a4,-20(s0)
10000648:	00300793          	li	a5,3
1000064c:	00e7fe63          	bgeu	a5,a4,10000668 <print_dec+0x3cc>
10000650:	03400513          	li	a0,52
10000654:	b29ff0ef          	jal	ra,1000017c <putchar>
10000658:	fec42783          	lw	a5,-20(s0)
1000065c:	ffc78793          	addi	a5,a5,-4
10000660:	fef42623          	sw	a5,-20(s0)
10000664:	0740006f          	j	100006d8 <print_dec+0x43c>
10000668:	fec42703          	lw	a4,-20(s0)
1000066c:	00200793          	li	a5,2
10000670:	00e7fe63          	bgeu	a5,a4,1000068c <print_dec+0x3f0>
10000674:	03300513          	li	a0,51
10000678:	b05ff0ef          	jal	ra,1000017c <putchar>
1000067c:	fec42783          	lw	a5,-20(s0)
10000680:	ffd78793          	addi	a5,a5,-3
10000684:	fef42623          	sw	a5,-20(s0)
10000688:	0500006f          	j	100006d8 <print_dec+0x43c>
1000068c:	fec42703          	lw	a4,-20(s0)
10000690:	00100793          	li	a5,1
10000694:	00e7fe63          	bgeu	a5,a4,100006b0 <print_dec+0x414>
10000698:	03200513          	li	a0,50
1000069c:	ae1ff0ef          	jal	ra,1000017c <putchar>
100006a0:	fec42783          	lw	a5,-20(s0)
100006a4:	ffe78793          	addi	a5,a5,-2
100006a8:	fef42623          	sw	a5,-20(s0)
100006ac:	02c0006f          	j	100006d8 <print_dec+0x43c>
100006b0:	fec42783          	lw	a5,-20(s0)
100006b4:	00078e63          	beqz	a5,100006d0 <print_dec+0x434>
100006b8:	03100513          	li	a0,49
100006bc:	ac1ff0ef          	jal	ra,1000017c <putchar>
100006c0:	fec42783          	lw	a5,-20(s0)
100006c4:	fff78793          	addi	a5,a5,-1
100006c8:	fef42623          	sw	a5,-20(s0)
100006cc:	00c0006f          	j	100006d8 <print_dec+0x43c>
100006d0:	03000513          	li	a0,48
100006d4:	aa9ff0ef          	jal	ra,1000017c <putchar>
100006d8:	01c12083          	lw	ra,28(sp)
100006dc:	01812403          	lw	s0,24(sp)
100006e0:	02010113          	addi	sp,sp,32
100006e4:	00008067          	ret

100006e8 <print_digit>:
100006e8:	fe010113          	addi	sp,sp,-32
100006ec:	00112e23          	sw	ra,28(sp)
100006f0:	00812c23          	sw	s0,24(sp)
100006f4:	02010413          	addi	s0,sp,32
100006f8:	fea42623          	sw	a0,-20(s0)
100006fc:	fec42783          	lw	a5,-20(s0)
10000700:	00f7f793          	andi	a5,a5,15
10000704:	fef42623          	sw	a5,-20(s0)
10000708:	fec42703          	lw	a4,-20(s0)
1000070c:	00900793          	li	a5,9
10000710:	00f71863          	bne	a4,a5,10000720 <print_digit+0x38>
10000714:	03900513          	li	a0,57
10000718:	a65ff0ef          	jal	ra,1000017c <putchar>
1000071c:	1700006f          	j	1000088c <print_digit+0x1a4>
10000720:	fec42703          	lw	a4,-20(s0)
10000724:	00800793          	li	a5,8
10000728:	00f71863          	bne	a4,a5,10000738 <print_digit+0x50>
1000072c:	03800513          	li	a0,56
10000730:	a4dff0ef          	jal	ra,1000017c <putchar>
10000734:	1580006f          	j	1000088c <print_digit+0x1a4>
10000738:	fec42703          	lw	a4,-20(s0)
1000073c:	00700793          	li	a5,7
10000740:	00f71863          	bne	a4,a5,10000750 <print_digit+0x68>
10000744:	03700513          	li	a0,55
10000748:	a35ff0ef          	jal	ra,1000017c <putchar>
1000074c:	1400006f          	j	1000088c <print_digit+0x1a4>
10000750:	fec42703          	lw	a4,-20(s0)
10000754:	00600793          	li	a5,6
10000758:	00f71863          	bne	a4,a5,10000768 <print_digit+0x80>
1000075c:	03600513          	li	a0,54
10000760:	a1dff0ef          	jal	ra,1000017c <putchar>
10000764:	1280006f          	j	1000088c <print_digit+0x1a4>
10000768:	fec42703          	lw	a4,-20(s0)
1000076c:	00500793          	li	a5,5
10000770:	00f71863          	bne	a4,a5,10000780 <print_digit+0x98>
10000774:	03500513          	li	a0,53
10000778:	a05ff0ef          	jal	ra,1000017c <putchar>
1000077c:	1100006f          	j	1000088c <print_digit+0x1a4>
10000780:	fec42703          	lw	a4,-20(s0)
10000784:	00400793          	li	a5,4
10000788:	00f71863          	bne	a4,a5,10000798 <print_digit+0xb0>
1000078c:	03400513          	li	a0,52
10000790:	9edff0ef          	jal	ra,1000017c <putchar>
10000794:	0f80006f          	j	1000088c <print_digit+0x1a4>
10000798:	fec42703          	lw	a4,-20(s0)
1000079c:	00300793          	li	a5,3
100007a0:	00f71863          	bne	a4,a5,100007b0 <print_digit+0xc8>
100007a4:	03300513          	li	a0,51
100007a8:	9d5ff0ef          	jal	ra,1000017c <putchar>
100007ac:	0e00006f          	j	1000088c <print_digit+0x1a4>
100007b0:	fec42703          	lw	a4,-20(s0)
100007b4:	00200793          	li	a5,2
100007b8:	00f71863          	bne	a4,a5,100007c8 <print_digit+0xe0>
100007bc:	03200513          	li	a0,50
100007c0:	9bdff0ef          	jal	ra,1000017c <putchar>
100007c4:	0c80006f          	j	1000088c <print_digit+0x1a4>
100007c8:	fec42703          	lw	a4,-20(s0)
100007cc:	00100793          	li	a5,1
100007d0:	00f71863          	bne	a4,a5,100007e0 <print_digit+0xf8>
100007d4:	03100513          	li	a0,49
100007d8:	9a5ff0ef          	jal	ra,1000017c <putchar>
100007dc:	0b00006f          	j	1000088c <print_digit+0x1a4>
100007e0:	fec42783          	lw	a5,-20(s0)
100007e4:	00079863          	bnez	a5,100007f4 <print_digit+0x10c>
100007e8:	03000513          	li	a0,48
100007ec:	991ff0ef          	jal	ra,1000017c <putchar>
100007f0:	09c0006f          	j	1000088c <print_digit+0x1a4>
100007f4:	fec42703          	lw	a4,-20(s0)
100007f8:	00a00793          	li	a5,10
100007fc:	00f71863          	bne	a4,a5,1000080c <print_digit+0x124>
10000800:	06100513          	li	a0,97
10000804:	979ff0ef          	jal	ra,1000017c <putchar>
10000808:	0840006f          	j	1000088c <print_digit+0x1a4>
1000080c:	fec42703          	lw	a4,-20(s0)
10000810:	00b00793          	li	a5,11
10000814:	00f71863          	bne	a4,a5,10000824 <print_digit+0x13c>
10000818:	06200513          	li	a0,98
1000081c:	961ff0ef          	jal	ra,1000017c <putchar>
10000820:	06c0006f          	j	1000088c <print_digit+0x1a4>
10000824:	fec42703          	lw	a4,-20(s0)
10000828:	00c00793          	li	a5,12
1000082c:	00f71863          	bne	a4,a5,1000083c <print_digit+0x154>
10000830:	06300513          	li	a0,99
10000834:	949ff0ef          	jal	ra,1000017c <putchar>
10000838:	0540006f          	j	1000088c <print_digit+0x1a4>
1000083c:	fec42703          	lw	a4,-20(s0)
10000840:	00d00793          	li	a5,13
10000844:	00f71863          	bne	a4,a5,10000854 <print_digit+0x16c>
10000848:	06400513          	li	a0,100
1000084c:	931ff0ef          	jal	ra,1000017c <putchar>
10000850:	03c0006f          	j	1000088c <print_digit+0x1a4>
10000854:	fec42703          	lw	a4,-20(s0)
10000858:	00e00793          	li	a5,14
1000085c:	00f71863          	bne	a4,a5,1000086c <print_digit+0x184>
10000860:	06500513          	li	a0,101
10000864:	919ff0ef          	jal	ra,1000017c <putchar>
10000868:	0240006f          	j	1000088c <print_digit+0x1a4>
1000086c:	fec42703          	lw	a4,-20(s0)
10000870:	00f00793          	li	a5,15
10000874:	00f71863          	bne	a4,a5,10000884 <print_digit+0x19c>
10000878:	06600513          	li	a0,102
1000087c:	901ff0ef          	jal	ra,1000017c <putchar>
10000880:	00c0006f          	j	1000088c <print_digit+0x1a4>
10000884:	02a00513          	li	a0,42
10000888:	8f5ff0ef          	jal	ra,1000017c <putchar>
1000088c:	00000013          	nop
10000890:	01c12083          	lw	ra,28(sp)
10000894:	01812403          	lw	s0,24(sp)
10000898:	02010113          	addi	sp,sp,32
1000089c:	00008067          	ret

100008a0 <set_gpio>:
100008a0:	fe010113          	addi	sp,sp,-32
100008a4:	00812e23          	sw	s0,28(sp)
100008a8:	02010413          	addi	s0,sp,32
100008ac:	fea42623          	sw	a0,-20(s0)
100008b0:	260007b7          	lui	a5,0x26000
100008b4:	00c78793          	addi	a5,a5,12 # 2600000c <_etext+0x15fff488>
100008b8:	0007a683          	lw	a3,0(a5)
100008bc:	fec42703          	lw	a4,-20(s0)
100008c0:	260007b7          	lui	a5,0x26000
100008c4:	00c78793          	addi	a5,a5,12 # 2600000c <_etext+0x15fff488>
100008c8:	00e6e733          	or	a4,a3,a4
100008cc:	00e7a023          	sw	a4,0(a5)
100008d0:	00000013          	nop
100008d4:	01c12403          	lw	s0,28(sp)
100008d8:	02010113          	addi	sp,sp,32
100008dc:	00008067          	ret

100008e0 <clear_gpio>:
100008e0:	fe010113          	addi	sp,sp,-32
100008e4:	00812e23          	sw	s0,28(sp)
100008e8:	02010413          	addi	s0,sp,32
100008ec:	fea42623          	sw	a0,-20(s0)
100008f0:	260007b7          	lui	a5,0x26000
100008f4:	00c78793          	addi	a5,a5,12 # 2600000c <_etext+0x15fff488>
100008f8:	0007a703          	lw	a4,0(a5)
100008fc:	fec42783          	lw	a5,-20(s0)
10000900:	fff7c793          	not	a5,a5
10000904:	00078693          	mv	a3,a5
10000908:	260007b7          	lui	a5,0x26000
1000090c:	00c78793          	addi	a5,a5,12 # 2600000c <_etext+0x15fff488>
10000910:	00d77733          	and	a4,a4,a3
10000914:	00e7a023          	sw	a4,0(a5)
10000918:	00000013          	nop
1000091c:	01c12403          	lw	s0,28(sp)
10000920:	02010113          	addi	sp,sp,32
10000924:	00008067          	ret

10000928 <main>:
10000928:	fc010113          	addi	sp,sp,-64
1000092c:	02112e23          	sw	ra,60(sp)
10000930:	02812c23          	sw	s0,56(sp)
10000934:	04010413          	addi	s0,sp,64
10000938:	260007b7          	lui	a5,0x26000
1000093c:	03c78793          	addi	a5,a5,60 # 2600003c <_etext+0x15fff4b8>
10000940:	7ff00713          	li	a4,2047
10000944:	00e7a023          	sw	a4,0(a5)
10000948:	260007b7          	lui	a5,0x26000
1000094c:	00c78793          	addi	a5,a5,12 # 2600000c <_etext+0x15fff488>
10000950:	0007a023          	sw	zero,0(a5)
10000954:	200007b7          	lui	a5,0x20000
10000958:	41200713          	li	a4,1042
1000095c:	00e7a023          	sw	a4,0(a5) # 20000000 <_etext+0xffff47c>
10000960:	200007b7          	lui	a5,0x20000
10000964:	00878793          	addi	a5,a5,8 # 20000008 <_etext+0xffff484>
10000968:	00100713          	li	a4,1
1000096c:	00e7a023          	sw	a4,0(a5)
10000970:	250007b7          	lui	a5,0x25000
10000974:	00c78793          	addi	a5,a5,12 # 2500000c <_etext+0x14fff488>
10000978:	0007a023          	sw	zero,0(a5)
1000097c:	260007b7          	lui	a5,0x26000
10000980:	00100713          	li	a4,1
10000984:	00e7a023          	sw	a4,0(a5) # 26000000 <_etext+0x15fff47c>
10000988:	00000013          	nop
1000098c:	260007b7          	lui	a5,0x26000
10000990:	0007a703          	lw	a4,0(a5) # 26000000 <_etext+0x15fff47c>
10000994:	00100793          	li	a5,1
10000998:	fef70ae3          	beq	a4,a5,1000098c <main+0x64>
1000099c:	100017b7          	lui	a5,0x10001
100009a0:	b347a603          	lw	a2,-1228(a5) # 10000b34 <main+0x20c>
100009a4:	b3478713          	addi	a4,a5,-1228
100009a8:	00472683          	lw	a3,4(a4)
100009ac:	b3478713          	addi	a4,a5,-1228
100009b0:	00872703          	lw	a4,8(a4)
100009b4:	b3478793          	addi	a5,a5,-1228
100009b8:	00c7a783          	lw	a5,12(a5)
100009bc:	fcc42c23          	sw	a2,-40(s0)
100009c0:	fcd42e23          	sw	a3,-36(s0)
100009c4:	fee42023          	sw	a4,-32(s0)
100009c8:	fef42223          	sw	a5,-28(s0)
100009cc:	100017b7          	lui	a5,0x10001
100009d0:	b747a603          	lw	a2,-1164(a5) # 10000b74 <main+0x24c>
100009d4:	b7478713          	addi	a4,a5,-1164
100009d8:	00472683          	lw	a3,4(a4)
100009dc:	b7478713          	addi	a4,a5,-1164
100009e0:	00872703          	lw	a4,8(a4)
100009e4:	b7478793          	addi	a5,a5,-1164
100009e8:	00c7a783          	lw	a5,12(a5)
100009ec:	fcc42423          	sw	a2,-56(s0)
100009f0:	fcd42623          	sw	a3,-52(s0)
100009f4:	fce42823          	sw	a4,-48(s0)
100009f8:	fcf42a23          	sw	a5,-44(s0)
100009fc:	300007b7          	lui	a5,0x30000
10000a00:	01478793          	addi	a5,a5,20 # 30000014 <_etext+0x1ffff490>
10000a04:	00f00713          	li	a4,15
10000a08:	00e7a023          	sw	a4,0(a5)
10000a0c:	300007b7          	lui	a5,0x30000
10000a10:	01090737          	lui	a4,0x1090
10000a14:	10170713          	addi	a4,a4,257 # 1090101 <_edata+0x90101>
10000a18:	00e7a023          	sw	a4,0(a5) # 30000000 <_etext+0x1ffff47c>
10000a1c:	300007b7          	lui	a5,0x30000
10000a20:	00478793          	addi	a5,a5,4 # 30000004 <_etext+0x1ffff480>
10000a24:	00001737          	lui	a4,0x1
10000a28:	88870713          	addi	a4,a4,-1912 # 888 <_edata-0xfff778>
10000a2c:	00e7a023          	sw	a4,0(a5)
10000a30:	300007b7          	lui	a5,0x30000
10000a34:	00c78793          	addi	a5,a5,12 # 3000000c <_etext+0x1ffff488>
10000a38:	00100713          	li	a4,1
10000a3c:	00e7a023          	sw	a4,0(a5)
10000a40:	300007b7          	lui	a5,0x30000
10000a44:	01090737          	lui	a4,0x1090
10000a48:	10170713          	addi	a4,a4,257 # 1090101 <_edata+0x90101>
10000a4c:	00e7a023          	sw	a4,0(a5) # 30000000 <_etext+0x1ffff47c>
10000a50:	300007b7          	lui	a5,0x30000
10000a54:	01078793          	addi	a5,a5,16 # 30000010 <_etext+0x1ffff48c>
10000a58:	00100713          	li	a4,1
10000a5c:	00e7a023          	sw	a4,0(a5)
10000a60:	300007b7          	lui	a5,0x30000
10000a64:	00878793          	addi	a5,a5,8 # 30000008 <_etext+0x1ffff484>
10000a68:	0007a783          	lw	a5,0(a5)
10000a6c:	fef42423          	sw	a5,-24(s0)
10000a70:	07c00513          	li	a0,124
10000a74:	f08ff0ef          	jal	ra,1000017c <putchar>
10000a78:	02d00513          	li	a0,45
10000a7c:	f00ff0ef          	jal	ra,1000017c <putchar>
10000a80:	fe842783          	lw	a5,-24(s0)
10000a84:	00300593          	li	a1,3
10000a88:	00078513          	mv	a0,a5
10000a8c:	f8cff0ef          	jal	ra,10000218 <print_hex>
10000a90:	fe042623          	sw	zero,-20(s0)
10000a94:	0100006f          	j	10000aa4 <main+0x17c>
10000a98:	fec42783          	lw	a5,-20(s0)
10000a9c:	00178793          	addi	a5,a5,1
10000aa0:	fef42623          	sw	a5,-20(s0)
10000aa4:	fec42703          	lw	a4,-20(s0)
10000aa8:	000027b7          	lui	a5,0x2
10000aac:	70f78793          	addi	a5,a5,1807 # 270f <_edata-0xffd8f1>
10000ab0:	fee7d4e3          	bge	a5,a4,10000a98 <main+0x170>
10000ab4:	fbdff06f          	j	10000a70 <main+0x148>
10000ab8:	3130                	fld	fa2,96(a0)
10000aba:	3332                	fld	ft6,296(sp)
10000abc:	3534                	fld	fa3,104(a0)
10000abe:	3736                	fld	fa4,360(sp)
10000ac0:	3938                	fld	fa4,112(a0)
10000ac2:	6261                	lui	tp,0x18
10000ac4:	66656463          	bltu	a0,t1,1000112c <_etext+0x5a8>
10000ac8:	0000                	unimp
10000aca:	0000                	unimp
10000acc:	5245564f          	fnmadd.d	fa2,fa0,ft4,fa0,unknown
10000ad0:	0000                	unimp
10000ad2:	0000                	unimp
10000ad4:	5720                	lw	s0,104(a4)
10000ad6:	7a776f6f          	jal	t5,10077a7c <_etext+0x76ef8>
10000ada:	6161                	addi	sp,sp,80
10000adc:	2161                	jal	10000f64 <_etext+0x3e0>
10000ade:	2021                	jal	10000ae6 <main+0x1be>
10000ae0:	2020                	fld	fs0,64(s0)
10000ae2:	2020                	fld	fs0,64(s0)
10000ae4:	2020                	fld	fs0,64(s0)
10000ae6:	2020                	fld	fs0,64(s0)
10000ae8:	0000                	unimp
10000aea:	0000                	unimp
10000aec:	2020                	fld	fs0,64(s0)
10000aee:	2020                	fld	fs0,64(s0)
10000af0:	2020                	fld	fs0,64(s0)
10000af2:	2020                	fld	fs0,64(s0)
10000af4:	2020                	fld	fs0,64(s0)
10000af6:	2020                	fld	fs0,64(s0)
10000af8:	2020                	fld	fs0,64(s0)
10000afa:	2020                	fld	fs0,64(s0)
10000afc:	2020                	fld	fs0,64(s0)
10000afe:	2020                	fld	fs0,64(s0)
10000b00:	0000                	unimp
10000b02:	0000                	unimp
10000b04:	4920                	lw	s0,80(a0)
10000b06:	43206d27          	0x43206d27
10000b0a:	7261                	lui	tp,0xffff8
10000b0c:	7661                	lui	a2,0xffff8
10000b0e:	6c65                	lui	s8,0x19
10000b10:	2120                	fld	fs0,64(a0)
10000b12:	2021                	jal	10000b1a <main+0x1f2>
10000b14:	2020                	fld	fs0,64(s0)
10000b16:	2020                	fld	fs0,64(s0)
10000b18:	0000                	unimp
10000b1a:	0000                	unimp
10000b1c:	2020                	fld	fs0,64(s0)
10000b1e:	2020                	fld	fs0,64(s0)
10000b20:	2020                	fld	fs0,64(s0)
10000b22:	2749                	jal	100012a4 <_etext+0x720>
10000b24:	206d                	jal	10000bce <_etext+0x4a>
10000b26:	6c41                	lui	s8,0x10
10000b28:	7669                	lui	a2,0xffffa
10000b2a:	2065                	jal	10000bd2 <_etext+0x4e>
10000b2c:	2121                	jal	10000f34 <_etext+0x3b0>
10000b2e:	2021                	jal	10000b36 <main+0x20e>
10000b30:	0000                	unimp
10000b32:	0000                	unimp
10000b34:	0ad4                	addi	a3,sp,340
10000b36:	1000                	addi	s0,sp,32
10000b38:	0aec                	addi	a1,sp,348
10000b3a:	1000                	addi	s0,sp,32
10000b3c:	0b04                	addi	s1,sp,400
10000b3e:	1000                	addi	s0,sp,32
10000b40:	0b1c                	addi	a5,sp,400
10000b42:	1000                	addi	s0,sp,32
10000b44:	5420                	lw	s0,104(s0)
10000b46:	7365                	lui	t1,0xffff9
10000b48:	2074                	fld	fa3,192(s0)
10000b4a:	2020                	fld	fs0,64(s0)
10000b4c:	2020                	fld	fs0,64(s0)
10000b4e:	2020                	fld	fs0,64(s0)
10000b50:	2020                	fld	fs0,64(s0)
10000b52:	2020                	fld	fs0,64(s0)
10000b54:	2020                	fld	fs0,64(s0)
10000b56:	2020                	fld	fs0,64(s0)
10000b58:	0000                	unimp
10000b5a:	0000                	unimp
10000b5c:	2020                	fld	fs0,64(s0)
10000b5e:	2020                	fld	fs0,64(s0)
10000b60:	2020                	fld	fs0,64(s0)
10000b62:	2749                	jal	100012e4 <_etext+0x760>
10000b64:	206d                	jal	10000c0e <_etext+0x8a>
10000b66:	7250                	flw	fa2,36(a2)
10000b68:	2065                	jal	10000c10 <_etext+0x8c>
10000b6a:	2020                	fld	fs0,64(s0)
10000b6c:	2121                	jal	10000f74 <_etext+0x3f0>
10000b6e:	2021                	jal	10000b76 <main+0x24e>
10000b70:	0000                	unimp
10000b72:	0000                	unimp
10000b74:	0b44                	addi	s1,sp,404
10000b76:	1000                	addi	s0,sp,32
10000b78:	0aec                	addi	a1,sp,348
10000b7a:	1000                	addi	s0,sp,32
10000b7c:	0b04                	addi	s1,sp,400
10000b7e:	1000                	addi	s0,sp,32
10000b80:	0b5c                	addi	a5,sp,404
10000b82:	1000                	addi	s0,sp,32

Disassembly of section .comment:

00000000 <.comment>:
   0:	3a434347          	fmsub.d	ft6,ft6,ft4,ft7,rmm
   4:	2820                	fld	fs0,80(s0)
   6:	29554e47          	fmsub.s	ft8,fa0,fs5,ft5,rmm
   a:	3820                	fld	fs0,112(s0)
   c:	322e                	fld	ft4,232(sp)
   e:	302e                	fld	ft0,232(sp)
	...
